target datalayout = "e-m:e-p270:32:32-p271:32:32-p272:64:64-i64:64-i128:128-f80:128-n8:16:32:64-S128"
target triple = "x86_64-pc-linux-gnu"

%struct.evthread_lock_callbacks = type { i32, i32, ptr, ptr, ptr, ptr }
%struct.ev_token_bucket = type { i64, i64, i32 }
%struct.ev_token_bucket_cfg = type { i64, i64, i64, i64, %struct.timeval, i32 }
%struct.timeval = type { i64, i64 }
%struct.bufferevent_private = type { %struct.bufferevent, ptr, i8, i16, i16, i16, i32, i32, %struct.event_callback, i32, i32, ptr, i64, i64, ptr, %union.anon.7, ptr }
%struct.bufferevent = type { ptr, ptr, %struct.event, %struct.event, ptr, ptr, %struct.event_watermark, %struct.event_watermark, ptr, ptr, ptr, ptr, %struct.timeval, %struct.timeval, i16 }
%struct.event = type { %struct.event_callback, %union.anon.0, i32, i16, i16, ptr, %union.anon.2, %struct.timeval }
%union.anon.0 = type { %struct.anon.1 }
%struct.anon.1 = type { ptr, ptr }
%union.anon.2 = type { %struct.anon.3 }
%struct.anon.3 = type { %struct.anon.4, %struct.timeval }
%struct.anon.4 = type { ptr, ptr }
%struct.event_watermark = type { i64, i64 }
%struct.event_callback = type { %struct.anon, i16, i8, i8, %union.anon, ptr }
%struct.anon = type { ptr, ptr }
%union.anon = type { ptr }
%union.anon.7 = type { %struct.sockaddr_in6 }
%struct.sockaddr_in6 = type { i16, i16, i32, %struct.in6_addr, i32 }
%struct.in6_addr = type { %union.anon.8 }
%union.anon.8 = type { [4 x i32] }
%struct.bufferevent_rate_limit = type { %struct.anon.9, ptr, %struct.ev_token_bucket, ptr, %struct.event }
%struct.anon.9 = type { ptr, ptr }

@evthread_lock_fns_ = external global %struct.evthread_lock_callbacks, align 8

; Function Attrs: nounwind uwtable
define hidden i32 @ev_token_bucket_init_(ptr noundef %0, ptr noundef %1, i32 noundef %2, i32 noundef %3) #0 {
  %5 = alloca ptr, align 8
  %6 = alloca ptr, align 8
  %7 = alloca i32, align 4
  %8 = alloca i32, align 4
  store ptr %0, ptr %5, align 8
  store ptr %1, ptr %6, align 8
  store i32 %2, ptr %7, align 4
  store i32 %3, ptr %8, align 4
  %9 = load i32, ptr %8, align 4
  %10 = icmp ne i32 %9, 0
  br i1 %10, label %11, label %40

11:                                               ; preds = %4
  %12 = load ptr, ptr %5, align 8
  %13 = getelementptr inbounds nuw %struct.ev_token_bucket, ptr %12, i32 0, i32 0
  %14 = load i64, ptr %13, align 8
  %15 = load ptr, ptr %6, align 8
  %16 = getelementptr inbounds nuw %struct.ev_token_bucket_cfg, ptr %15, i32 0, i32 1
  %17 = load i64, ptr %16, align 8
  %18 = icmp sgt i64 %14, %17
  br i1 %18, label %19, label %25

19:                                               ; preds = %11
  %20 = load ptr, ptr %6, align 8
  %21 = getelementptr inbounds nuw %struct.ev_token_bucket_cfg, ptr %20, i32 0, i32 1
  %22 = load i64, ptr %21, align 8
  %23 = load ptr, ptr %5, align 8
  %24 = getelementptr inbounds nuw %struct.ev_token_bucket, ptr %23, i32 0, i32 0
  store i64 %22, ptr %24, align 8
  br label %25

25:                                               ; preds = %19, %11
  %26 = load ptr, ptr %5, align 8
  %27 = getelementptr inbounds nuw %struct.ev_token_bucket, ptr %26, i32 0, i32 1
  %28 = load i64, ptr %27, align 8
  %29 = load ptr, ptr %6, align 8
  %30 = getelementptr inbounds nuw %struct.ev_token_bucket_cfg, ptr %29, i32 0, i32 3
  %31 = load i64, ptr %30, align 8
  %32 = icmp sgt i64 %28, %31
  br i1 %32, label %33, label %39

33:                                               ; preds = %25
  %34 = load ptr, ptr %6, align 8
  %35 = getelementptr inbounds nuw %struct.ev_token_bucket_cfg, ptr %34, i32 0, i32 3
  %36 = load i64, ptr %35, align 8
  %37 = load ptr, ptr %5, align 8
  %38 = getelementptr inbounds nuw %struct.ev_token_bucket, ptr %37, i32 0, i32 1
  store i64 %36, ptr %38, align 8
  br label %39

39:                                               ; preds = %33, %25
  br label %54

40:                                               ; preds = %4
  %41 = load ptr, ptr %6, align 8
  %42 = getelementptr inbounds nuw %struct.ev_token_bucket_cfg, ptr %41, i32 0, i32 0
  %43 = load i64, ptr %42, align 8
  %44 = load ptr, ptr %5, align 8
  %45 = getelementptr inbounds nuw %struct.ev_token_bucket, ptr %44, i32 0, i32 0
  store i64 %43, ptr %45, align 8
  %46 = load ptr, ptr %6, align 8
  %47 = getelementptr inbounds nuw %struct.ev_token_bucket_cfg, ptr %46, i32 0, i32 2
  %48 = load i64, ptr %47, align 8
  %49 = load ptr, ptr %5, align 8
  %50 = getelementptr inbounds nuw %struct.ev_token_bucket, ptr %49, i32 0, i32 1
  store i64 %48, ptr %50, align 8
  %51 = load i32, ptr %7, align 4
  %52 = load ptr, ptr %5, align 8
  %53 = getelementptr inbounds nuw %struct.ev_token_bucket, ptr %52, i32 0, i32 2
  store i32 %51, ptr %53, align 8
  br label %54

54:                                               ; preds = %40, %39
  ret i32 0
}

; Function Attrs: nounwind uwtable
define hidden i32 @ev_token_bucket_get_tick_(ptr noundef %0, ptr noundef %1) #0 {
  %3 = alloca ptr, align 8
  %4 = alloca ptr, align 8
  %5 = alloca i64, align 8
  store ptr %0, ptr %3, align 8
  store ptr %1, ptr %4, align 8
  call void @llvm.lifetime.start.p0(i64 8, ptr %5) #5
  %6 = load ptr, ptr %3, align 8
  %7 = getelementptr inbounds nuw %struct.timeval, ptr %6, i32 0, i32 0
  %8 = load i64, ptr %7, align 8
  %9 = mul i64 %8, 1000
  %10 = load ptr, ptr %3, align 8
  %11 = getelementptr inbounds nuw %struct.timeval, ptr %10, i32 0, i32 1
  %12 = load i64, ptr %11, align 8
  %13 = sdiv i64 %12, 1000
  %14 = add i64 %9, %13
  store i64 %14, ptr %5, align 8
  %15 = load i64, ptr %5, align 8
  %16 = load ptr, ptr %4, align 8
  %17 = getelementptr inbounds nuw %struct.ev_token_bucket_cfg, ptr %16, i32 0, i32 5
  %18 = load i32, ptr %17, align 8
  %19 = zext i32 %18 to i64
  %20 = udiv i64 %15, %19
  %21 = trunc i64 %20 to i32
  call void @llvm.lifetime.end.p0(i64 8, ptr %5) #5
  ret i32 %21
}

; Function Attrs: nounwind uwtable
define i32 @bufferevent_set_rate_limit(ptr noundef %0, ptr noundef %1) #0 {
  %3 = alloca ptr, align 8
  %4 = alloca ptr, align 8
  %5 = alloca ptr, align 8
  %6 = alloca i32, align 4
  %7 = alloca ptr, align 8
  %8 = alloca %struct.timeval, align 8
  %9 = alloca i32, align 4
  %10 = alloca i32, align 4
  %11 = alloca i32, align 4
  %12 = alloca ptr, align 8
  %13 = alloca ptr, align 8
  store ptr %0, ptr %3, align 8
  store ptr %1, ptr %4, align 8
  call void @llvm.lifetime.start.p0(i64 8, ptr %5) #5
  %14 = load ptr, ptr %3, align 8
  %15 = getelementptr inbounds i8, ptr %14, i64 0
  store ptr %15, ptr %5, align 8
  call void @llvm.lifetime.start.p0(i64 4, ptr %6) #5
  store i32 -1, ptr %6, align 4
  call void @llvm.lifetime.start.p0(i64 8, ptr %7) #5
  call void @llvm.lifetime.start.p0(i64 16, ptr %8) #5
  call void @llvm.lifetime.start.p0(i64 4, ptr %9) #5
  call void @llvm.lifetime.start.p0(i64 4, ptr %10) #5
  store i32 0, ptr %10, align 4
  call void @llvm.lifetime.start.p0(i64 4, ptr %11) #5
  store i32 0, ptr %11, align 4
  br label %16

16:                                               ; preds = %2
  call void @llvm.lifetime.start.p0(i64 8, ptr %12) #5
  %17 = load ptr, ptr %3, align 8
  %18 = getelementptr inbounds i8, ptr %17, i64 0
  store ptr %18, ptr %12, align 8
  br label %19

19:                                               ; preds = %16
  %20 = load ptr, ptr %12, align 8
  %21 = getelementptr inbounds nuw %struct.bufferevent_private, ptr %20, i32 0, i32 11
  %22 = load ptr, ptr %21, align 8
  %23 = icmp ne ptr %22, null
  br i1 %23, label %24, label %30

24:                                               ; preds = %19
  %25 = load ptr, ptr getelementptr inbounds nuw (%struct.evthread_lock_callbacks, ptr @evthread_lock_fns_, i32 0, i32 4), align 8
  %26 = load ptr, ptr %12, align 8
  %27 = getelementptr inbounds nuw %struct.bufferevent_private, ptr %26, i32 0, i32 11
  %28 = load ptr, ptr %27, align 8
  %29 = call i32 %25(i32 noundef 0, ptr noundef %28)
  br label %30

30:                                               ; preds = %24, %19
  br label %31

31:                                               ; preds = %30
  br label %32

32:                                               ; preds = %31
  call void @llvm.lifetime.end.p0(i64 8, ptr %12) #5
  br label %33

33:                                               ; preds = %32
  br label %34

34:                                               ; preds = %33
  %35 = load ptr, ptr %4, align 8
  %36 = icmp eq ptr %35, null
  br i1 %36, label %37, label %60

37:                                               ; preds = %34
  %38 = load ptr, ptr %5, align 8
  %39 = getelementptr inbounds nuw %struct.bufferevent_private, ptr %38, i32 0, i32 14
  %40 = load ptr, ptr %39, align 8
  %41 = icmp ne ptr %40, null
  br i1 %41, label %42, label %59

42:                                               ; preds = %37
  %43 = load ptr, ptr %5, align 8
  %44 = getelementptr inbounds nuw %struct.bufferevent_private, ptr %43, i32 0, i32 14
  %45 = load ptr, ptr %44, align 8
  store ptr %45, ptr %7, align 8
  %46 = load ptr, ptr %7, align 8
  %47 = getelementptr inbounds nuw %struct.bufferevent_rate_limit, ptr %46, i32 0, i32 3
  store ptr null, ptr %47, align 8
  %48 = load ptr, ptr %3, align 8
  call void @bufferevent_unsuspend_read_(ptr noundef %48, i16 noundef zeroext 2)
  %49 = load ptr, ptr %3, align 8
  call void @bufferevent_unsuspend_write_(ptr noundef %49, i16 noundef zeroext 2)
  %50 = load ptr, ptr %7, align 8
  %51 = getelementptr inbounds nuw %struct.bufferevent_rate_limit, ptr %50, i32 0, i32 4
  %52 = call i32 @event_initialized(ptr noundef %51)
  %53 = icmp ne i32 %52, 0
  br i1 %53, label %54, label %58

54:                                               ; preds = %42
  %55 = load ptr, ptr %7, align 8
  %56 = getelementptr inbounds nuw %struct.bufferevent_rate_limit, ptr %55, i32 0, i32 4
  %57 = call i32 @event_del(ptr noundef %56)
  br label %58

58:                                               ; preds = %54, %42
  br label %59

59:                                               ; preds = %58, %37
  store i32 0, ptr %6, align 4
  br label %159

60:                                               ; preds = %34
  %61 = load ptr, ptr %3, align 8
  %62 = getelementptr inbounds nuw %struct.bufferevent, ptr %61, i32 0, i32 0
  %63 = load ptr, ptr %62, align 8
  %64 = call i32 @event_base_gettimeofday_cached(ptr noundef %63, ptr noundef %8)
  %65 = load ptr, ptr %4, align 8
  %66 = call i32 @ev_token_bucket_get_tick_(ptr noundef %8, ptr noundef %65)
  store i32 %66, ptr %9, align 4
  %67 = load ptr, ptr %5, align 8
  %68 = getelementptr inbounds nuw %struct.bufferevent_private, ptr %67, i32 0, i32 14
  %69 = load ptr, ptr %68, align 8
  %70 = icmp ne ptr %69, null
  br i1 %70, label %71, label %80

71:                                               ; preds = %60
  %72 = load ptr, ptr %5, align 8
  %73 = getelementptr inbounds nuw %struct.bufferevent_private, ptr %72, i32 0, i32 14
  %74 = load ptr, ptr %73, align 8
  %75 = getelementptr inbounds nuw %struct.bufferevent_rate_limit, ptr %74, i32 0, i32 3
  %76 = load ptr, ptr %75, align 8
  %77 = load ptr, ptr %4, align 8
  %78 = icmp eq ptr %76, %77
  br i1 %78, label %79, label %80

79:                                               ; preds = %71
  store i32 0, ptr %6, align 4
  br label %159

80:                                               ; preds = %71, %60
  %81 = load ptr, ptr %5, align 8
  %82 = getelementptr inbounds nuw %struct.bufferevent_private, ptr %81, i32 0, i32 14
  %83 = load ptr, ptr %82, align 8
  %84 = icmp eq ptr %83, null
  br i1 %84, label %85, label %94

85:                                               ; preds = %80
  %86 = call ptr @event_mm_calloc_(i64 noundef 1, i64 noundef 176)
  store ptr %86, ptr %7, align 8
  %87 = load ptr, ptr %7, align 8
  %88 = icmp ne ptr %87, null
  br i1 %88, label %90, label %89

89:                                               ; preds = %85
  br label %159

90:                                               ; preds = %85
  %91 = load ptr, ptr %7, align 8
  %92 = load ptr, ptr %5, align 8
  %93 = getelementptr inbounds nuw %struct.bufferevent_private, ptr %92, i32 0, i32 14
  store ptr %91, ptr %93, align 8
  br label %98

94:                                               ; preds = %80
  %95 = load ptr, ptr %5, align 8
  %96 = getelementptr inbounds nuw %struct.bufferevent_private, ptr %95, i32 0, i32 14
  %97 = load ptr, ptr %96, align 8
  store ptr %97, ptr %7, align 8
  br label %98

98:                                               ; preds = %94, %90
  %99 = load ptr, ptr %7, align 8
  %100 = getelementptr inbounds nuw %struct.bufferevent_rate_limit, ptr %99, i32 0, i32 3
  %101 = load ptr, ptr %100, align 8
  %102 = icmp ne ptr %101, null
  %103 = zext i1 %102 to i32
  store i32 %103, ptr %10, align 4
  %104 = load ptr, ptr %4, align 8
  %105 = load ptr, ptr %7, align 8
  %106 = getelementptr inbounds nuw %struct.bufferevent_rate_limit, ptr %105, i32 0, i32 3
  store ptr %104, ptr %106, align 8
  %107 = load ptr, ptr %7, align 8
  %108 = getelementptr inbounds nuw %struct.bufferevent_rate_limit, ptr %107, i32 0, i32 2
  %109 = load ptr, ptr %4, align 8
  %110 = load i32, ptr %9, align 4
  %111 = load i32, ptr %10, align 4
  %112 = call i32 @ev_token_bucket_init_(ptr noundef %108, ptr noundef %109, i32 noundef %110, i32 noundef %111)
  %113 = load i32, ptr %10, align 4
  %114 = icmp ne i32 %113, 0
  br i1 %114, label %115, label %122

115:                                              ; preds = %98
  br label %116

116:                                              ; preds = %115
  br label %117

117:                                              ; preds = %116
  br label %118

118:                                              ; preds = %117
  %119 = load ptr, ptr %7, align 8
  %120 = getelementptr inbounds nuw %struct.bufferevent_rate_limit, ptr %119, i32 0, i32 4
  %121 = call i32 @event_del(ptr noundef %120)
  br label %122

122:                                              ; preds = %118, %98
  %123 = load ptr, ptr %7, align 8
  %124 = getelementptr inbounds nuw %struct.bufferevent_rate_limit, ptr %123, i32 0, i32 4
  %125 = load ptr, ptr %3, align 8
  %126 = getelementptr inbounds nuw %struct.bufferevent, ptr %125, i32 0, i32 0
  %127 = load ptr, ptr %126, align 8
  %128 = load ptr, ptr %5, align 8
  %129 = call i32 @event_assign(ptr noundef %124, ptr noundef %127, i32 noundef -1, i16 noundef signext 64, ptr noundef @bev_refill_callback_, ptr noundef %128)
  %130 = load ptr, ptr %7, align 8
  %131 = getelementptr inbounds nuw %struct.bufferevent_rate_limit, ptr %130, i32 0, i32 2
  %132 = getelementptr inbounds nuw %struct.ev_token_bucket, ptr %131, i32 0, i32 0
  %133 = load i64, ptr %132, align 8
  %134 = icmp sgt i64 %133, 0
  br i1 %134, label %135, label %137

135:                                              ; preds = %122
  %136 = load ptr, ptr %3, align 8
  call void @bufferevent_unsuspend_read_(ptr noundef %136, i16 noundef zeroext 2)
  br label %139

137:                                              ; preds = %122
  %138 = load ptr, ptr %3, align 8
  call void @bufferevent_suspend_read_(ptr noundef %138, i16 noundef zeroext 2)
  store i32 1, ptr %11, align 4
  br label %139

139:                                              ; preds = %137, %135
  %140 = load ptr, ptr %7, align 8
  %141 = getelementptr inbounds nuw %struct.bufferevent_rate_limit, ptr %140, i32 0, i32 2
  %142 = getelementptr inbounds nuw %struct.ev_token_bucket, ptr %141, i32 0, i32 1
  %143 = load i64, ptr %142, align 8
  %144 = icmp sgt i64 %143, 0
  br i1 %144, label %145, label %147

145:                                              ; preds = %139
  %146 = load ptr, ptr %3, align 8
  call void @bufferevent_unsuspend_write_(ptr noundef %146, i16 noundef zeroext 2)
  br label %149

147:                                              ; preds = %139
  %148 = load ptr, ptr %3, align 8
  call void @bufferevent_suspend_write_(ptr noundef %148, i16 noundef zeroext 2)
  store i32 1, ptr %11, align 4
  br label %149

149:                                              ; preds = %147, %145
  %150 = load i32, ptr %11, align 4
  %151 = icmp ne i32 %150, 0
  br i1 %151, label %152, label %158

152:                                              ; preds = %149
  %153 = load ptr, ptr %7, align 8
  %154 = getelementptr inbounds nuw %struct.bufferevent_rate_limit, ptr %153, i32 0, i32 4
  %155 = load ptr, ptr %4, align 8
  %156 = getelementptr inbounds nuw %struct.ev_token_bucket_cfg, ptr %155, i32 0, i32 4
  %157 = call i32 @event_add(ptr noundef %154, ptr noundef %156)
  br label %158

158:                                              ; preds = %152, %149
  store i32 0, ptr %6, align 4
  br label %159

159:                                              ; preds = %158, %89, %79, %59
  br label %160

160:                                              ; preds = %159
  call void @llvm.lifetime.start.p0(i64 8, ptr %13) #5
  %161 = load ptr, ptr %3, align 8
  %162 = getelementptr inbounds i8, ptr %161, i64 0
  store ptr %162, ptr %13, align 8
  br label %163

163:                                              ; preds = %160
  %164 = load ptr, ptr %13, align 8
  %165 = getelementptr inbounds nuw %struct.bufferevent_private, ptr %164, i32 0, i32 11
  %166 = load ptr, ptr %165, align 8
  %167 = icmp ne ptr %166, null
  br i1 %167, label %168, label %174

168:                                              ; preds = %163
  %169 = load ptr, ptr getelementptr inbounds nuw (%struct.evthread_lock_callbacks, ptr @evthread_lock_fns_, i32 0, i32 5), align 8
  %170 = load ptr, ptr %13, align 8
  %171 = getelementptr inbounds nuw %struct.bufferevent_private, ptr %170, i32 0, i32 11
  %172 = load ptr, ptr %171, align 8
  %173 = call i32 %169(i32 noundef 0, ptr noundef %172)
  br label %174

174:                                              ; preds = %168, %163
  br label %175

175:                                              ; preds = %174
  br label %176

176:                                              ; preds = %175
  call void @llvm.lifetime.end.p0(i64 8, ptr %13) #5
  br label %177

177:                                              ; preds = %176
  br label %178

178:                                              ; preds = %177
  %179 = load i32, ptr %6, align 4
  call void @llvm.lifetime.end.p0(i64 4, ptr %11) #5
  call void @llvm.lifetime.end.p0(i64 4, ptr %10) #5
  call void @llvm.lifetime.end.p0(i64 4, ptr %9) #5
  call void @llvm.lifetime.end.p0(i64 16, ptr %8) #5
  call void @llvm.lifetime.end.p0(i64 8, ptr %7) #5
  call void @llvm.lifetime.end.p0(i64 4, ptr %6) #5
  call void @llvm.lifetime.end.p0(i64 8, ptr %5) #5
  ret i32 %179
}