; Function Attrs: nounwind uwtable
define range(i32 -1, 1) i32 @bufferevent_set_rate_limit(ptr noundef %0, ptr noundef %1) local_unnamed_addr #3 {
  %3 = alloca %struct.timeval, align 8
  call void @llvm.lifetime.start.p0(i64 16, ptr nonnull %3) #10
  %4 = getelementptr inbounds nuw i8, ptr %0, i64 448
  %5 = load ptr, ptr %4, align 8
  %.not = icmp eq ptr %5, null
  br i1 %.not, label %9, label %6

6:                                                ; preds = %2
  %7 = load ptr, ptr getelementptr inbounds nuw (i8, ptr @evthread_lock_fns_, i64 24), align 8
  %8 = tail call i32 %7(i32 noundef 0, ptr noundef nonnull %5) #10
  br label %9

9:                                                ; preds = %6, %2
  %10 = icmp eq ptr %1, null
  br i1 %10, label %11, label %20

11:                                               ; preds = %9
  %12 = getelementptr inbounds nuw i8, ptr %0, i64 472
  %13 = load ptr, ptr %12, align 8
  %.not58 = icmp eq ptr %13, null
  br i1 %.not58, label %84, label %14

14:                                               ; preds = %11
  %15 = getelementptr inbounds nuw i8, ptr %13, i64 48
  store ptr null, ptr %15, align 8
  tail call void @bufferevent_unsuspend_read_(ptr noundef nonnull %0, i16 noundef zeroext 2) #10
  tail call void @bufferevent_unsuspend_write_(ptr noundef nonnull %0, i16 noundef zeroext 2) #10
  %16 = getelementptr inbounds nuw i8, ptr %13, i64 56
  %17 = tail call i32 @event_initialized(ptr noundef nonnull %16) #10
  %.not59 = icmp eq i32 %17, 0
  br i1 %.not59, label %84, label %18

18:                                               ; preds = %14
  %19 = tail call i32 @event_del(ptr noundef nonnull %16) #10
  br label %84

20:                                               ; preds = %9
  %21 = load ptr, ptr %0, align 8
  %22 = call i32 @event_base_gettimeofday_cached(ptr noundef %21, ptr noundef nonnull %3) #10
  %23 = load i64, ptr %3, align 8
  %24 = mul i64 %23, 1000
  %25 = getelementptr inbounds nuw i8, ptr %3, i64 8
  %26 = load i64, ptr %25, align 8
  %27 = sdiv i64 %26, 1000
  %28 = add i64 %27, %24
  %29 = getelementptr inbounds nuw i8, ptr %1, i64 48
  %30 = load i32, ptr %29, align 8
  %31 = zext i32 %30 to i64
  %32 = udiv i64 %28, %31
  %33 = trunc i64 %32 to i32
  %34 = getelementptr inbounds nuw i8, ptr %0, i64 472
  %35 = load ptr, ptr %34, align 8
  %.not55 = icmp eq ptr %35, null
  br i1 %.not55, label %40, label %36

36:                                               ; preds = %20
  %37 = getelementptr inbounds nuw i8, ptr %35, i64 48
  %38 = load ptr, ptr %37, align 8
  %39 = icmp eq ptr %38, %1
  br i1 %39, label %84, label %43

40:                                               ; preds = %20
  %41 = call ptr @event_mm_calloc_(i64 noundef 1, i64 noundef 176) #10
  %.not56 = icmp eq ptr %41, null
  br i1 %.not56, label %84, label %42

42:                                               ; preds = %40
  store ptr %41, ptr %34, align 8
  %.phi.trans.insert = getelementptr inbounds nuw i8, ptr %41, i64 48
  %.pre = load ptr, ptr %.phi.trans.insert, align 8
  br label %43

43:                                               ; preds = %36, %42
  %44 = phi ptr [ %.pre, %42 ], [ %38, %36 ]
  %.046 = phi ptr [ %41, %42 ], [ %35, %36 ]
  %45 = getelementptr inbounds nuw i8, ptr %.046, i64 48
  %.not63 = icmp eq ptr %44, null
  store ptr %1, ptr %45, align 8
  %46 = getelementptr inbounds nuw i8, ptr %.046, i64 24
  br i1 %.not63, label %ev_token_bucket_init_.exit, label %47

47:                                               ; preds = %43
  %48 = load i64, ptr %46, align 8
  %49 = getelementptr inbounds nuw i8, ptr %1, i64 8
  %50 = load i64, ptr %49, align 8
  %51 = icmp sgt i64 %48, %50
  br i1 %51, label %52, label %53

52:                                               ; preds = %47
  store i64 %50, ptr %46, align 8
  br label %53

53:                                               ; preds = %52, %47
  %54 = getelementptr inbounds nuw i8, ptr %.046, i64 32
  %55 = load i64, ptr %54, align 8
  %56 = getelementptr inbounds nuw i8, ptr %1, i64 24
  %57 = load i64, ptr %56, align 8
  %58 = icmp sgt i64 %55, %57
  br i1 %58, label %59, label %65

59:                                               ; preds = %53
  store i64 %57, ptr %54, align 8
  br label %65

ev_token_bucket_init_.exit:                       ; preds = %43
  %60 = load i64, ptr %1, align 8
  store i64 %60, ptr %46, align 8
  %61 = getelementptr inbounds nuw i8, ptr %1, i64 16
  %62 = load i64, ptr %61, align 8
  %63 = getelementptr inbounds nuw i8, ptr %.046, i64 32
  store i64 %62, ptr %63, align 8
  %64 = getelementptr inbounds nuw i8, ptr %.046, i64 40
  store i32 %33, ptr %64, align 8
  br label %68

65:                                               ; preds = %53, %59
  %66 = getelementptr inbounds nuw i8, ptr %.046, i64 56
  %67 = call i32 @event_del(ptr noundef nonnull %66) #10
  br label %68

68:                                               ; preds = %ev_token_bucket_init_.exit, %65
  %69 = getelementptr inbounds nuw i8, ptr %.046, i64 56
  %70 = load ptr, ptr %0, align 8
  %71 = call i32 @event_assign(ptr noundef nonnull %69, ptr noundef %70, i32 noundef -1, i16 noundef signext 64, ptr noundef nonnull @bev_refill_callback_, ptr noundef nonnull %0) #10
  %72 = load i64, ptr %46, align 8
  %73 = icmp sgt i64 %72, 0
  %74 = getelementptr inbounds nuw i8, ptr %.046, i64 32
  br i1 %73, label %75, label %.thread61

75:                                               ; preds = %68
  call void @bufferevent_unsuspend_read_(ptr noundef nonnull %0, i16 noundef zeroext 2) #10
  %76 = load i64, ptr %74, align 8
  %77 = icmp sgt i64 %76, 0
  br i1 %77, label %80, label %.critedge

.thread61:                                        ; preds = %68
  call void @bufferevent_suspend_read_(ptr noundef nonnull %0, i16 noundef zeroext 2) #10
  %78 = load i64, ptr %74, align 8
  %79 = icmp sgt i64 %78, 0
  br i1 %79, label %.thread62, label %.critedge

.thread62:                                        ; preds = %.thread61
  call void @bufferevent_unsuspend_write_(ptr noundef nonnull %0, i16 noundef zeroext 2) #10
  br label %81

80:                                               ; preds = %75
  call void @bufferevent_unsuspend_write_(ptr noundef nonnull %0, i16 noundef zeroext 2) #10
  br label %84

.critedge:                                        ; preds = %.thread61, %75
  call void @bufferevent_suspend_write_(ptr noundef nonnull %0, i16 noundef zeroext 2) #10
  br label %81

81:                                               ; preds = %.thread62, %.critedge
  %82 = getelementptr inbounds nuw i8, ptr %1, i64 32
  %83 = call i32 @event_add(ptr noundef nonnull %69, ptr noundef nonnull %82) #10
  br label %84

84:                                               ; preds = %80, %81, %36, %11, %18, %14, %40
  %.0 = phi i32 [ -1, %40 ], [ 0, %14 ], [ 0, %18 ], [ 0, %11 ], [ 0, %36 ], [ 0, %81 ], [ 0, %80 ]
  %85 = load ptr, ptr %4, align 8
  %.not60 = icmp eq ptr %85, null
  br i1 %.not60, label %89, label %86

86:                                               ; preds = %84
  %87 = load ptr, ptr getelementptr inbounds nuw (i8, ptr @evthread_lock_fns_, i64 32), align 8
  %88 = call i32 %87(i32 noundef 0, ptr noundef nonnull %85) #10
  br label %89

89:                                               ; preds = %86, %84
  call void @llvm.lifetime.end.p0(i64 16, ptr nonnull %3) #10
  ret i32 %.0
}